Certificate:
    Data:
        Version: 3 (0x2)
        Serial Number: 1 (0x1)
    Signature Algorithm: sha256WithRSAEncryption
        Issuer: C=PL, ST=mazowieckie, L=Warsaw, O=MIMUW, OU=BSK, CN=MIMUW CA/name=EasyRSA/emailAddress=bsk@mimuw.edu.pl
        Validity
            Not Before: Jan 14 23:24:47 2017 GMT
            Not After : Jan 12 23:24:47 2027 GMT
        Subject: C=PL, ST=mazowieckie, L=Warsaw, O=MIMUW, OU=BSK, CN=vpn-server/name=EasyRSA/emailAddress=bsk@mimuw.edu.pl
        Subject Public Key Info:
            Public Key Algorithm: rsaEncryption
                Public-Key: (2048 bit)
                Modulus:
                    00:b7:74:64:6f:14:79:eb:b8:33:ba:17:ab:32:a0:
                    f8:8b:2b:1e:8a:05:ed:01:2b:76:e2:f7:31:59:cd:
                    f9:8d:36:fb:23:34:a8:74:b7:2f:1b:ed:d6:05:f9:
                    c7:2a:c6:38:e2:b1:3d:49:f7:4a:10:81:22:1a:9f:
                    94:2e:35:17:47:58:0b:11:6d:06:e0:ca:3c:a9:59:
                    fe:37:25:fd:69:6f:ee:9a:7c:f7:d3:a3:ab:58:a6:
                    c2:68:86:3b:24:a8:5d:2e:34:ec:b8:2a:31:c7:f9:
                    0d:c2:df:ab:ab:cb:8c:60:a0:3a:56:27:f9:80:99:
                    da:63:6c:ef:19:76:88:9c:2d:bf:cf:5d:e3:3a:27:
                    f2:20:a6:0a:b3:99:24:08:3f:81:9a:86:84:b2:c2:
                    59:94:76:ba:f1:55:16:31:11:5f:08:30:42:5e:3b:
                    86:ac:64:b3:f7:58:10:15:09:d7:a7:68:72:54:33:
                    f0:db:06:d6:f2:c6:66:d0:b2:60:45:89:de:63:48:
                    84:a4:73:79:76:55:ad:c6:8f:c6:e8:35:50:0a:2b:
                    2d:d7:0c:3d:33:cc:b5:28:74:80:ae:59:af:f8:20:
                    13:58:8a:de:c5:78:1f:ae:91:26:80:3d:0f:ea:c6:
                    1b:8c:0f:6c:71:8f:f2:a4:7a:8c:d0:12:b4:f6:0c:
                    f1:f5
                Exponent: 65537 (0x10001)
        X509v3 extensions:
            X509v3 Basic Constraints: 
                CA:FALSE
            Netscape Cert Type: 
                SSL Server
            Netscape Comment: 
                Easy-RSA Generated Server Certificate
            X509v3 Subject Key Identifier: 
                FE:26:C0:E6:94:5B:66:59:EB:77:81:95:2F:B1:28:20:3A:00:73:95
            X509v3 Authority Key Identifier: 
                keyid:90:59:25:13:65:12:BC:BD:E4:F8:5B:9B:5B:64:B4:7C:EF:70:62:87
                DirName:/C=PL/ST=mazowieckie/L=Warsaw/O=MIMUW/OU=BSK/CN=MIMUW CA/name=EasyRSA/emailAddress=bsk@mimuw.edu.pl
                serial:F2:A9:E7:08:D4:D0:E7:54

            X509v3 Extended Key Usage: 
                TLS Web Server Authentication
            X509v3 Key Usage: 
                Digital Signature, Key Encipherment
    Signature Algorithm: sha256WithRSAEncryption
         a6:53:dd:88:64:5d:84:79:e4:a9:48:d7:64:22:52:20:b3:6f:
         f1:5c:72:ea:66:56:d9:6c:e6:51:5e:1d:62:14:14:0c:6d:78:
         9c:3a:e0:9d:f1:70:a6:21:2a:29:60:f9:ee:20:99:a4:da:b8:
         2c:dc:94:40:05:44:02:27:f8:93:c5:52:fb:c9:40:18:2b:6a:
         1c:32:30:6a:71:03:66:c4:99:08:4e:42:20:d1:a3:b7:4b:30:
         54:ff:7d:72:37:7c:da:58:5a:50:0b:b5:dd:82:8a:39:7a:de:
         fa:e4:45:84:85:12:23:22:bc:63:65:49:59:e3:cb:93:df:d2:
         37:62:70:7a:48:c4:70:90:07:f9:44:a4:4a:30:f0:2f:d6:89:
         55:48:b9:b8:76:e2:33:5d:f7:29:4c:3f:b7:e4:1c:9a:25:47:
         fa:6e:04:92:6d:6c:14:9c:49:a5:13:d2:63:83:38:de:81:c9:
         d0:4a:8c:ef:b5:06:31:ec:76:ce:27:04:95:93:b6:b0:0c:d3:
         ea:67:67:b2:0f:97:a9:35:b4:ef:13:90:7f:b1:8a:28:6f:84:
         c8:77:ba:65:51:f4:c1:87:61:55:24:a3:cf:34:b4:98:7a:1c:
         f9:a6:94:34:e1:f4:9e:b4:7f:fb:8e:5d:4a:e8:ad:74:68:b4:
         da:48:48:f9
-----BEGIN CERTIFICATE-----
MIIFGjCCBAKgAwIBAgIBATANBgkqhkiG9w0BAQsFADCBmDELMAkGA1UEBhMCUEwx
FDASBgNVBAgTC21hem93aWVja2llMQ8wDQYDVQQHEwZXYXJzYXcxDjAMBgNVBAoT
BU1JTVVXMQwwCgYDVQQLEwNCU0sxETAPBgNVBAMTCE1JTVVXIENBMRAwDgYDVQQp
EwdFYXN5UlNBMR8wHQYJKoZIhvcNAQkBFhBic2tAbWltdXcuZWR1LnBsMB4XDTE3
MDExNDIzMjQ0N1oXDTI3MDExMjIzMjQ0N1owgZoxCzAJBgNVBAYTAlBMMRQwEgYD
VQQIEwttYXpvd2llY2tpZTEPMA0GA1UEBxMGV2Fyc2F3MQ4wDAYDVQQKEwVNSU1V
VzEMMAoGA1UECxMDQlNLMRMwEQYDVQQDEwp2cG4tc2VydmVyMRAwDgYDVQQpEwdF
YXN5UlNBMR8wHQYJKoZIhvcNAQkBFhBic2tAbWltdXcuZWR1LnBsMIIBIjANBgkq
hkiG9w0BAQEFAAOCAQ8AMIIBCgKCAQEAt3RkbxR567gzuherMqD4iyseigXtASt2
4vcxWc35jTb7IzSodLcvG+3WBfnHKsY44rE9SfdKEIEiGp+ULjUXR1gLEW0G4Mo8
qVn+NyX9aW/umnz306OrWKbCaIY7JKhdLjTsuCoxx/kNwt+rq8uMYKA6Vif5gJna
Y2zvGXaInC2/z13jOifyIKYKs5kkCD+BmoaEssJZlHa68VUWMRFfCDBCXjuGrGSz
91gQFQnXp2hyVDPw2wbW8sZm0LJgRYneY0iEpHN5dlWtxo/G6DVQCist1ww9M8y1
KHSArlmv+CATWIrexXgfrpEmgD0P6sYbjA9scY/ypHqM0BK09gzx9QIDAQABo4IB
aTCCAWUwCQYDVR0TBAIwADARBglghkgBhvhCAQEEBAMCBkAwNAYJYIZIAYb4QgEN
BCcWJUVhc3ktUlNBIEdlbmVyYXRlZCBTZXJ2ZXIgQ2VydGlmaWNhdGUwHQYDVR0O
BBYEFP4mwOaUW2ZZ63eBlS+xKCA6AHOVMIHNBgNVHSMEgcUwgcKAFJBZJRNlEry9
5Phbm1tktHzvcGKHoYGepIGbMIGYMQswCQYDVQQGEwJQTDEUMBIGA1UECBMLbWF6
b3dpZWNraWUxDzANBgNVBAcTBldhcnNhdzEOMAwGA1UEChMFTUlNVVcxDDAKBgNV
BAsTA0JTSzERMA8GA1UEAxMITUlNVVcgQ0ExEDAOBgNVBCkTB0Vhc3lSU0ExHzAd
BgkqhkiG9w0BCQEWEGJza0BtaW11dy5lZHUucGyCCQDyqecI1NDnVDATBgNVHSUE
DDAKBggrBgEFBQcDATALBgNVHQ8EBAMCBaAwDQYJKoZIhvcNAQELBQADggEBAKZT
3YhkXYR55KlI12QiUiCzb/FccupmVtls5lFeHWIUFAxteJw64J3xcKYhKilg+e4g
maTauCzclEAFRAIn+JPFUvvJQBgrahwyMGpxA2bEmQhOQiDRo7dLMFT/fXI3fNpY
WlALtd2Cijl63vrkRYSFEiMivGNlSVnjy5Pf0jdicHpIxHCQB/lEpEow8C/WiVVI
ubh24jNd9ylMP7fkHJolR/puBJJtbBScSaUT0mODON6BydBKjO+1BjHsds4nBJWT
trAM0+pnZ7IPl6k1tO8TkH+xiihvhMh3umVR9MGHYVUko880tJh6HPmmlDTh9J60
f/uOXUrorXRotNpISPk=
-----END CERTIFICATE-----
