Certificate:
    Data:
        Version: 3 (0x2)
        Serial Number: 3 (0x3)
    Signature Algorithm: sha256WithRSAEncryption
        Issuer: C=PL, ST=mazowieckie, L=Warsaw, O=MIMUW, OU=BSK, CN=MIMUW CA/name=EasyRSA/emailAddress=bsk@mimuw.edu.pl
        Validity
            Not Before: Jan 15 08:32:48 2017 GMT
            Not After : Jan 13 08:32:48 2027 GMT
        Subject: C=PL, ST=mazowieckie, L=Warsaw, O=MIMUW, OU=BSK, CN=john2 doe2/name=EasyRSA/emailAddress=user2@mimuw.edu.pl
        Subject Public Key Info:
            Public Key Algorithm: rsaEncryption
                Public-Key: (2048 bit)
                Modulus:
                    00:da:c4:ca:8e:b9:7d:47:a2:77:6f:ae:df:ea:7a:
                    ed:d0:a0:d3:53:3c:bc:ba:51:5a:35:b3:a5:b2:1c:
                    5e:f3:35:d6:94:3a:7a:b5:b3:fb:72:49:7c:18:79:
                    79:f8:57:fa:7f:eb:8a:f5:10:9a:6b:88:63:b4:22:
                    02:5c:19:de:73:88:8b:bc:48:9a:d7:38:b3:56:ea:
                    ac:1a:66:03:57:27:64:62:88:59:57:b6:3a:d2:68:
                    07:99:b5:12:55:24:b6:53:02:2b:ae:59:a1:3b:12:
                    3a:a6:28:83:62:a9:ed:b8:db:3f:e8:1a:bd:16:f9:
                    b4:2d:eb:bd:38:65:1d:f8:dd:28:60:88:55:f5:61:
                    c4:f9:a1:00:03:7b:d1:d5:55:97:cb:9a:65:19:2b:
                    4e:1d:a0:a0:3f:e8:03:5e:64:57:c7:6a:a4:d6:c5:
                    ac:a1:8c:6b:d1:56:b4:bb:c2:a4:2f:7c:78:a1:a1:
                    b0:7d:47:e2:5c:d7:ad:e4:3e:cf:b1:da:4a:10:b5:
                    f4:da:45:2d:04:a9:f2:d0:2c:f9:79:9b:33:e1:f3:
                    10:4e:e7:b1:1e:ae:7c:4d:7f:90:c2:cc:3c:6a:1a:
                    0c:4b:b5:11:c6:61:22:8f:76:8f:aa:3a:6b:8f:01:
                    d9:48:f4:ce:71:7c:5b:8b:07:65:50:49:d7:9b:c8:
                    10:c7
                Exponent: 65537 (0x10001)
        X509v3 extensions:
            X509v3 Basic Constraints: 
                CA:FALSE
            Netscape Comment: 
                Easy-RSA Generated Certificate
            X509v3 Subject Key Identifier: 
                7B:7D:5A:FF:99:B3:71:D5:D8:BE:F3:55:D3:BB:34:02:DC:55:21:FF
            X509v3 Authority Key Identifier: 
                keyid:81:99:C8:38:8A:D0:FE:C8:50:AA:6F:25:C8:A1:E3:DF:AA:81:3C:AC
                DirName:/C=PL/ST=mazowieckie/L=Warsaw/O=MIMUW/OU=BSK/CN=MIMUW CA/name=EasyRSA/emailAddress=bsk@mimuw.edu.pl
                serial:F3:75:CB:7C:5D:3A:42:EB

            X509v3 Extended Key Usage: 
                TLS Web Client Authentication
            X509v3 Key Usage: 
                Digital Signature
    Signature Algorithm: sha256WithRSAEncryption
         46:08:6b:ec:9d:e0:f9:27:30:19:18:52:c5:0c:d8:0d:fe:93:
         5f:05:d5:4b:1c:de:c4:99:72:27:1b:62:7f:b0:e8:6f:60:4e:
         c1:66:0c:4c:21:f6:10:94:44:15:33:05:94:ee:54:6d:c4:b6:
         8f:66:bf:dc:c0:93:77:c5:26:aa:f3:93:e0:6d:f8:6d:69:cd:
         19:df:7a:3b:d8:64:59:21:c6:e8:28:f2:19:e8:73:8a:33:ba:
         08:b4:9d:77:88:43:98:3e:74:cf:05:17:a2:68:ff:83:e2:4d:
         1f:02:02:42:cb:32:b8:f9:21:d9:9b:c6:7d:4a:8e:90:62:cc:
         c5:2d:d8:89:ab:0d:4e:ec:d8:01:1f:19:2a:2f:27:9a:22:3d:
         fa:20:2e:8a:d0:e6:fe:6b:0b:d9:57:69:d2:c9:8d:be:78:c2:
         b8:09:8c:de:cf:05:94:31:7b:df:e6:93:8f:d3:dd:9a:2b:aa:
         45:53:90:48:56:c4:27:dd:a4:3a:6f:52:e5:17:59:8c:0a:54:
         82:f4:bc:fa:6c:30:61:46:60:41:61:88:34:be:7b:1f:fb:bf:
         be:21:d1:01:ec:51:16:32:57:dd:18:4b:53:9a:b1:3d:a2:51:
         94:34:b7:c2:d7:96:eb:c1:0e:0f:74:73:9b:0e:72:04:ca:03:
         76:02:9d:41
-----BEGIN CERTIFICATE-----
MIIFAjCCA+qgAwIBAgIBAzANBgkqhkiG9w0BAQsFADCBmDELMAkGA1UEBhMCUEwx
FDASBgNVBAgTC21hem93aWVja2llMQ8wDQYDVQQHEwZXYXJzYXcxDjAMBgNVBAoT
BU1JTVVXMQwwCgYDVQQLEwNCU0sxETAPBgNVBAMTCE1JTVVXIENBMRAwDgYDVQQp
EwdFYXN5UlNBMR8wHQYJKoZIhvcNAQkBFhBic2tAbWltdXcuZWR1LnBsMB4XDTE3
MDExNTA4MzI0OFoXDTI3MDExMzA4MzI0OFowgZwxCzAJBgNVBAYTAlBMMRQwEgYD
VQQIEwttYXpvd2llY2tpZTEPMA0GA1UEBxMGV2Fyc2F3MQ4wDAYDVQQKEwVNSU1V
VzEMMAoGA1UECxMDQlNLMRMwEQYDVQQDEwpqb2huMiBkb2UyMRAwDgYDVQQpEwdF
YXN5UlNBMSEwHwYJKoZIhvcNAQkBFhJ1c2VyMkBtaW11dy5lZHUucGwwggEiMA0G
CSqGSIb3DQEBAQUAA4IBDwAwggEKAoIBAQDaxMqOuX1Hondvrt/qeu3QoNNTPLy6
UVo1s6WyHF7zNdaUOnq1s/tySXwYeXn4V/p/64r1EJpriGO0IgJcGd5ziIu8SJrX
OLNW6qwaZgNXJ2RiiFlXtjrSaAeZtRJVJLZTAiuuWaE7EjqmKINiqe242z/oGr0W
+bQt6704ZR343ShgiFX1YcT5oQADe9HVVZfLmmUZK04doKA/6ANeZFfHaqTWxayh
jGvRVrS7wqQvfHihobB9R+Jc163kPs+x2koQtfTaRS0EqfLQLPl5mzPh8xBO57Ee
rnxNf5DCzDxqGgxLtRHGYSKPdo+qOmuPAdlI9M5xfFuLB2VQSdebyBDHAgMBAAGj
ggFPMIIBSzAJBgNVHRMEAjAAMC0GCWCGSAGG+EIBDQQgFh5FYXN5LVJTQSBHZW5l
cmF0ZWQgQ2VydGlmaWNhdGUwHQYDVR0OBBYEFHt9Wv+Zs3HV2L7zVdO7NALcVSH/
MIHNBgNVHSMEgcUwgcKAFIGZyDiK0P7IUKpvJcih49+qgTysoYGepIGbMIGYMQsw
CQYDVQQGEwJQTDEUMBIGA1UECBMLbWF6b3dpZWNraWUxDzANBgNVBAcTBldhcnNh
dzEOMAwGA1UEChMFTUlNVVcxDDAKBgNVBAsTA0JTSzERMA8GA1UEAxMITUlNVVcg
Q0ExEDAOBgNVBCkTB0Vhc3lSU0ExHzAdBgkqhkiG9w0BCQEWEGJza0BtaW11dy5l
ZHUucGyCCQDzdct8XTpC6zATBgNVHSUEDDAKBggrBgEFBQcDAjALBgNVHQ8EBAMC
B4AwDQYJKoZIhvcNAQELBQADggEBAEYIa+yd4PknMBkYUsUM2A3+k18F1Usc3sSZ
cicbYn+w6G9gTsFmDEwh9hCURBUzBZTuVG3Eto9mv9zAk3fFJqrzk+Bt+G1pzRnf
ejvYZFkhxugo8hnoc4ozugi0nXeIQ5g+dM8FF6Jo/4PiTR8CAkLLMrj5Idmbxn1K
jpBizMUt2ImrDU7s2AEfGSovJ5oiPfogLorQ5v5rC9lXadLJjb54wrgJjN7PBZQx
e9/mk4/T3ZorqkVTkEhWxCfdpDpvUuUXWYwKVIL0vPpsMGFGYEFhiDS+ex/7v74h
0QHsURYyV90YS1OasT2iUZQ0t8LXluvBDg90c5sOcgTKA3YCnUE=
-----END CERTIFICATE-----
