Certificate:
    Data:
        Version: 3 (0x2)
        Serial Number: 2 (0x2)
    Signature Algorithm: sha256WithRSAEncryption
        Issuer: C=PL, ST=mazowieckie, L=Warsaw, O=MIMUW, OU=BSK, CN=MIMUW CA/name=EasyRSA/emailAddress=bsk@mimuw.edu.pl
        Validity
            Not Before: Jan 15 00:21:45 2017 GMT
            Not After : Jan 13 00:21:45 2027 GMT
        Subject: C=PL, ST=mazowieckie, L=Warsaw, O=MIMUW, OU=BSK, CN=john doe/name=EasyRSA/emailAddress=john@mimuw.edu.pl
        Subject Public Key Info:
            Public Key Algorithm: rsaEncryption
                Public-Key: (2048 bit)
                Modulus:
                    00:c2:92:ce:fd:ee:df:52:d3:f3:47:a4:d3:36:36:
                    4e:be:dd:6e:0f:98:a0:59:c3:82:27:81:8f:eb:0a:
                    98:b6:52:04:20:5f:9a:3f:ae:1a:d1:fa:53:83:fc:
                    e2:53:33:24:e6:40:09:77:07:63:13:0d:81:d3:38:
                    7f:ae:ee:08:0f:9b:76:44:56:bc:90:8e:2c:12:ba:
                    a3:04:a8:90:d2:a6:33:29:08:20:49:91:87:7c:23:
                    33:ef:c0:be:94:8d:00:c1:15:b3:cf:55:10:c1:04:
                    1e:ad:f3:0b:f5:59:37:ac:fb:62:29:3a:d0:df:3a:
                    6a:0a:14:08:96:21:f6:48:c3:ef:d7:4d:5e:f6:0c:
                    44:61:69:9f:1a:f7:a0:5a:57:50:d1:53:aa:5b:12:
                    00:17:4c:a5:32:fc:cd:09:eb:08:30:d3:90:c8:e2:
                    fb:83:73:ac:32:c2:a3:97:58:12:cb:d1:16:a0:39:
                    37:22:67:15:04:2e:59:fe:71:f8:cb:cc:c6:f7:72:
                    ec:0f:60:8f:6b:bd:b0:7a:61:dc:ac:d3:47:13:25:
                    bd:f2:64:8f:ef:76:9b:53:f5:52:87:f3:91:57:42:
                    20:33:24:91:c3:1d:23:35:64:e2:28:13:fa:2f:5a:
                    68:9d:8f:0e:1f:d2:41:0f:39:3c:cd:67:80:1b:c4:
                    c5:73
                Exponent: 65537 (0x10001)
        X509v3 extensions:
            X509v3 Basic Constraints: 
                CA:FALSE
            Netscape Comment: 
                Easy-RSA Generated Certificate
            X509v3 Subject Key Identifier: 
                60:FF:BD:74:22:88:AA:F9:31:E4:D3:37:C1:67:C5:35:99:ED:76:87
            X509v3 Authority Key Identifier: 
                keyid:81:99:C8:38:8A:D0:FE:C8:50:AA:6F:25:C8:A1:E3:DF:AA:81:3C:AC
                DirName:/C=PL/ST=mazowieckie/L=Warsaw/O=MIMUW/OU=BSK/CN=MIMUW CA/name=EasyRSA/emailAddress=bsk@mimuw.edu.pl
                serial:F3:75:CB:7C:5D:3A:42:EB

            X509v3 Extended Key Usage: 
                TLS Web Client Authentication
            X509v3 Key Usage: 
                Digital Signature
    Signature Algorithm: sha256WithRSAEncryption
         ae:35:48:2c:76:38:3c:41:97:a2:70:4f:91:4e:6c:df:ca:a2:
         a8:09:1a:a5:21:2d:5f:d8:5a:59:18:26:04:cc:de:ab:8d:d9:
         7a:15:4a:12:21:f0:e6:d5:da:60:dd:73:65:02:4c:41:a3:aa:
         85:cc:f3:5c:2d:33:a2:80:8f:b5:58:cd:97:89:48:13:43:eb:
         19:24:ae:35:3b:46:ad:4d:04:c9:3c:fe:e4:bd:41:2c:c7:e8:
         15:8e:01:84:90:ad:6f:1a:9d:00:67:3b:17:f7:f6:68:49:d1:
         bc:2d:1d:42:bd:83:89:cc:62:0e:cd:c2:76:67:25:f8:fd:73:
         79:37:17:ab:93:02:fc:81:ba:0d:38:a2:67:80:13:97:85:a7:
         d1:67:78:3f:55:22:0c:e0:c2:32:2b:23:13:89:c1:13:4e:8d:
         6b:82:e4:c3:a5:a1:5a:d1:b7:9c:f6:9f:9a:62:49:0a:3d:a7:
         5d:00:13:7e:3b:e0:67:d8:92:7e:b5:35:af:8e:df:50:b5:a4:
         f4:72:f9:81:93:41:6f:b0:83:53:ae:51:fd:11:2c:b7:6b:0f:
         67:08:b6:cf:d7:56:17:f0:1b:eb:0d:fb:fd:37:46:88:a4:c3:
         3d:09:88:1d:f1:4f:a7:10:35:2c:47:cb:c3:35:9f:ff:87:69:
         ea:6d:72:b7
-----BEGIN CERTIFICATE-----
MIIE/zCCA+egAwIBAgIBAjANBgkqhkiG9w0BAQsFADCBmDELMAkGA1UEBhMCUEwx
FDASBgNVBAgTC21hem93aWVja2llMQ8wDQYDVQQHEwZXYXJzYXcxDjAMBgNVBAoT
BU1JTVVXMQwwCgYDVQQLEwNCU0sxETAPBgNVBAMTCE1JTVVXIENBMRAwDgYDVQQp
EwdFYXN5UlNBMR8wHQYJKoZIhvcNAQkBFhBic2tAbWltdXcuZWR1LnBsMB4XDTE3
MDExNTAwMjE0NVoXDTI3MDExMzAwMjE0NVowgZkxCzAJBgNVBAYTAlBMMRQwEgYD
VQQIEwttYXpvd2llY2tpZTEPMA0GA1UEBxMGV2Fyc2F3MQ4wDAYDVQQKEwVNSU1V
VzEMMAoGA1UECxMDQlNLMREwDwYDVQQDEwhqb2huIGRvZTEQMA4GA1UEKRMHRWFz
eVJTQTEgMB4GCSqGSIb3DQEJARYRam9obkBtaW11dy5lZHUucGwwggEiMA0GCSqG
SIb3DQEBAQUAA4IBDwAwggEKAoIBAQDCks797t9S0/NHpNM2Nk6+3W4PmKBZw4In
gY/rCpi2UgQgX5o/rhrR+lOD/OJTMyTmQAl3B2MTDYHTOH+u7ggPm3ZEVryQjiwS
uqMEqJDSpjMpCCBJkYd8IzPvwL6UjQDBFbPPVRDBBB6t8wv1WTes+2IpOtDfOmoK
FAiWIfZIw+/XTV72DERhaZ8a96BaV1DRU6pbEgAXTKUy/M0J6wgw05DI4vuDc6wy
wqOXWBLL0RagOTciZxUELln+cfjLzMb3cuwPYI9rvbB6Ydys00cTJb3yZI/vdptT
9VKH85FXQiAzJJHDHSM1ZOIoE/ovWmidjw4f0kEPOTzNZ4AbxMVzAgMBAAGjggFP
MIIBSzAJBgNVHRMEAjAAMC0GCWCGSAGG+EIBDQQgFh5FYXN5LVJTQSBHZW5lcmF0
ZWQgQ2VydGlmaWNhdGUwHQYDVR0OBBYEFGD/vXQiiKr5MeTTN8FnxTWZ7XaHMIHN
BgNVHSMEgcUwgcKAFIGZyDiK0P7IUKpvJcih49+qgTysoYGepIGbMIGYMQswCQYD
VQQGEwJQTDEUMBIGA1UECBMLbWF6b3dpZWNraWUxDzANBgNVBAcTBldhcnNhdzEO
MAwGA1UEChMFTUlNVVcxDDAKBgNVBAsTA0JTSzERMA8GA1UEAxMITUlNVVcgQ0Ex
EDAOBgNVBCkTB0Vhc3lSU0ExHzAdBgkqhkiG9w0BCQEWEGJza0BtaW11dy5lZHUu
cGyCCQDzdct8XTpC6zATBgNVHSUEDDAKBggrBgEFBQcDAjALBgNVHQ8EBAMCB4Aw
DQYJKoZIhvcNAQELBQADggEBAK41SCx2ODxBl6JwT5FObN/KoqgJGqUhLV/YWlkY
JgTM3quN2XoVShIh8ObV2mDdc2UCTEGjqoXM81wtM6KAj7VYzZeJSBND6xkkrjU7
Rq1NBMk8/uS9QSzH6BWOAYSQrW8anQBnOxf39mhJ0bwtHUK9g4nMYg7NwnZnJfj9
c3k3F6uTAvyBug04omeAE5eFp9FneD9VIgzgwjIrIxOJwRNOjWuC5MOloVrRt5z2
n5piSQo9p10AE3474GfYkn61Na+O31C1pPRy+YGTQW+wg1OuUf0RLLdrD2cIts/X
VhfwG+sN+/03Roikwz0JiB3xT6cQNSxHy8M1n/+Haeptcrc=
-----END CERTIFICATE-----
