Certificate:
    Data:
        Version: 3 (0x2)
        Serial Number: 1 (0x1)
    Signature Algorithm: sha256WithRSAEncryption
        Issuer: C=PL, ST=mazowieckie, L=Warsaw, O=MIMUW, OU=BSK, CN=MIMUW CA/name=EasyRSA/emailAddress=bsk@mimuw.edu.pl
        Validity
            Not Before: Jan 15 00:17:30 2017 GMT
            Not After : Jan 13 00:17:30 2027 GMT
        Subject: C=PL, ST=mazowieckie, L=Warsaw, O=MIMUW, OU=BSK, CN=vpn-server/name=EasyRSA/emailAddress=bsk@mimuw.edu.pl
        Subject Public Key Info:
            Public Key Algorithm: rsaEncryption
                Public-Key: (2048 bit)
                Modulus:
                    00:ae:6b:21:ed:f7:a0:7c:f2:31:cc:77:4d:ab:3e:
                    4a:e5:3b:54:d4:af:d7:d0:a0:ea:fa:a1:9d:85:ff:
                    72:bc:08:64:fc:3a:dd:f1:7d:c4:df:0f:9a:d4:8d:
                    ec:2b:7f:25:94:5b:f6:b4:c3:ba:67:47:18:b0:aa:
                    9c:ea:74:f1:d9:ae:4f:e1:37:ca:b7:2d:ef:74:c3:
                    61:7e:c8:6c:12:18:16:b1:90:f6:e1:b7:3b:44:07:
                    62:6a:d0:f4:a8:75:cd:e4:a1:7e:c8:14:9b:eb:20:
                    d8:42:f9:81:dc:18:ec:64:56:ae:f9:99:20:12:53:
                    50:18:e3:26:86:ac:8c:22:05:4f:5b:7c:2e:14:21:
                    bc:ab:08:fc:d7:97:32:cc:69:a0:18:53:6b:f3:a8:
                    59:76:04:3e:aa:9c:77:b8:8c:22:eb:bd:9f:84:2d:
                    d4:a9:e7:2b:cd:06:2d:cb:a7:e3:8e:78:48:48:c8:
                    62:da:52:72:2f:4d:ca:4a:f4:29:fd:28:b8:26:70:
                    a1:02:ae:77:c6:7d:76:13:e6:c2:0d:53:86:64:8a:
                    77:78:5e:7f:20:8c:1f:37:32:cc:c3:4d:49:f3:2d:
                    f5:8f:9f:7b:a1:bd:56:ca:0c:f5:26:6a:72:06:c8:
                    f8:de:63:09:29:dd:2c:6f:fd:c9:c2:d4:c7:49:76:
                    00:f3
                Exponent: 65537 (0x10001)
        X509v3 extensions:
            X509v3 Basic Constraints: 
                CA:FALSE
            Netscape Cert Type: 
                SSL Server
            Netscape Comment: 
                Easy-RSA Generated Server Certificate
            X509v3 Subject Key Identifier: 
                E7:16:1D:FF:DF:64:4C:F3:98:A3:84:25:D0:0D:96:3F:E1:F8:66:A9
            X509v3 Authority Key Identifier: 
                keyid:81:99:C8:38:8A:D0:FE:C8:50:AA:6F:25:C8:A1:E3:DF:AA:81:3C:AC
                DirName:/C=PL/ST=mazowieckie/L=Warsaw/O=MIMUW/OU=BSK/CN=MIMUW CA/name=EasyRSA/emailAddress=bsk@mimuw.edu.pl
                serial:F3:75:CB:7C:5D:3A:42:EB

            X509v3 Extended Key Usage: 
                TLS Web Server Authentication
            X509v3 Key Usage: 
                Digital Signature, Key Encipherment
    Signature Algorithm: sha256WithRSAEncryption
         50:5f:22:95:ac:38:e1:08:8b:20:7c:08:b2:e9:4f:c7:16:e8:
         f9:3e:b8:f5:20:61:90:68:4f:af:c1:4d:ba:46:e0:39:0c:0a:
         04:61:5a:e5:ba:65:bd:eb:5a:8f:b0:07:1c:ca:88:db:a7:3d:
         b0:57:83:26:93:5c:e8:2a:58:4a:6b:4b:c2:38:b3:fd:1e:ef:
         81:71:cf:cd:d6:57:08:29:8f:3f:15:1f:b4:a7:8a:7d:ea:38:
         45:fd:2d:58:b7:e8:47:83:48:54:1c:2b:04:b3:de:7b:82:70:
         cb:01:67:f3:d0:14:81:a6:f1:6f:e4:5b:15:ac:6b:0d:c8:46:
         7e:72:e6:b3:9d:a8:1e:f2:c8:8d:b2:7b:d0:06:58:5d:25:b1:
         84:bf:ac:0c:96:19:92:22:df:94:c8:e7:a0:5a:cd:b4:0a:45:
         47:34:ab:c2:97:3c:78:c8:55:96:07:71:b5:b4:5a:06:40:d7:
         6d:ff:d4:eb:38:89:e7:e6:a3:21:ca:29:24:71:b6:69:d4:38:
         19:6a:10:67:d5:a5:39:77:17:2a:4a:bd:df:1b:d3:b3:79:51:
         b5:26:f3:fd:93:55:9d:c9:23:d0:29:cb:e8:79:a1:04:d7:de:
         73:3e:c4:31:1a:12:34:0c:3d:e9:ad:19:39:30:36:06:1d:55:
         ff:d2:1e:67
-----BEGIN CERTIFICATE-----
MIIFGjCCBAKgAwIBAgIBATANBgkqhkiG9w0BAQsFADCBmDELMAkGA1UEBhMCUEwx
FDASBgNVBAgTC21hem93aWVja2llMQ8wDQYDVQQHEwZXYXJzYXcxDjAMBgNVBAoT
BU1JTVVXMQwwCgYDVQQLEwNCU0sxETAPBgNVBAMTCE1JTVVXIENBMRAwDgYDVQQp
EwdFYXN5UlNBMR8wHQYJKoZIhvcNAQkBFhBic2tAbWltdXcuZWR1LnBsMB4XDTE3
MDExNTAwMTczMFoXDTI3MDExMzAwMTczMFowgZoxCzAJBgNVBAYTAlBMMRQwEgYD
VQQIEwttYXpvd2llY2tpZTEPMA0GA1UEBxMGV2Fyc2F3MQ4wDAYDVQQKEwVNSU1V
VzEMMAoGA1UECxMDQlNLMRMwEQYDVQQDEwp2cG4tc2VydmVyMRAwDgYDVQQpEwdF
YXN5UlNBMR8wHQYJKoZIhvcNAQkBFhBic2tAbWltdXcuZWR1LnBsMIIBIjANBgkq
hkiG9w0BAQEFAAOCAQ8AMIIBCgKCAQEArmsh7fegfPIxzHdNqz5K5TtU1K/X0KDq
+qGdhf9yvAhk/Drd8X3E3w+a1I3sK38llFv2tMO6Z0cYsKqc6nTx2a5P4TfKty3v
dMNhfshsEhgWsZD24bc7RAdiatD0qHXN5KF+yBSb6yDYQvmB3BjsZFau+ZkgElNQ
GOMmhqyMIgVPW3wuFCG8qwj815cyzGmgGFNr86hZdgQ+qpx3uIwi672fhC3Uqecr
zQYty6fjjnhISMhi2lJyL03KSvQp/Si4JnChAq53xn12E+bCDVOGZIp3eF5/IIwf
NzLMw01J8y31j597ob1Wygz1JmpyBsj43mMJKd0sb/3JwtTHSXYA8wIDAQABo4IB
aTCCAWUwCQYDVR0TBAIwADARBglghkgBhvhCAQEEBAMCBkAwNAYJYIZIAYb4QgEN
BCcWJUVhc3ktUlNBIEdlbmVyYXRlZCBTZXJ2ZXIgQ2VydGlmaWNhdGUwHQYDVR0O
BBYEFOcWHf/fZEzzmKOEJdANlj/h+GapMIHNBgNVHSMEgcUwgcKAFIGZyDiK0P7I
UKpvJcih49+qgTysoYGepIGbMIGYMQswCQYDVQQGEwJQTDEUMBIGA1UECBMLbWF6
b3dpZWNraWUxDzANBgNVBAcTBldhcnNhdzEOMAwGA1UEChMFTUlNVVcxDDAKBgNV
BAsTA0JTSzERMA8GA1UEAxMITUlNVVcgQ0ExEDAOBgNVBCkTB0Vhc3lSU0ExHzAd
BgkqhkiG9w0BCQEWEGJza0BtaW11dy5lZHUucGyCCQDzdct8XTpC6zATBgNVHSUE
DDAKBggrBgEFBQcDATALBgNVHQ8EBAMCBaAwDQYJKoZIhvcNAQELBQADggEBAFBf
IpWsOOEIiyB8CLLpT8cW6Pk+uPUgYZBoT6/BTbpG4DkMCgRhWuW6Zb3rWo+wBxzK
iNunPbBXgyaTXOgqWEprS8I4s/0e74Fxz83WVwgpjz8VH7Snin3qOEX9LVi36EeD
SFQcKwSz3nuCcMsBZ/PQFIGm8W/kWxWsaw3IRn5y5rOdqB7yyI2ye9AGWF0lsYS/
rAyWGZIi35TI56BazbQKRUc0q8KXPHjIVZYHcbW0WgZA123/1Os4iefmoyHKKSRx
tmnUOBlqEGfVpTl3FypKvd8b07N5UbUm8/2TVZ3JI9Apy+h5oQTX3nM+xDEaEjQM
PemtGTkwNgYdVf/SHmc=
-----END CERTIFICATE-----
