Certificate:
    Data:
        Version: 3 (0x2)
        Serial Number: 16216628594851795706 (0xe10d09c9a29552fa)
    Signature Algorithm: sha256WithRSAEncryption
        Issuer: C=PL, ST=Mazowieckie, O=MIMUW, OU=BSK, CN=BSK Certification Authority 16/emailAddress=ca@mimuw.edu.pl
        Validity
            Not Before: Dec 13 17:32:39 2016 GMT
            Not After : Dec 11 17:32:39 2026 GMT
        Subject: C=PL, ST=Mazowieckie, O=MIMUW, OU=BSK, CN=BSK Certification Authority 16/emailAddress=ca@mimuw.edu.pl
        Subject Public Key Info:
            Public Key Algorithm: rsaEncryption
                Public-Key: (2048 bit)
                Modulus:
                    00:c5:8f:b1:a6:59:60:20:8a:4d:83:04:c6:f0:e9:
                    73:df:f9:16:26:08:1a:6e:f7:f5:2d:9b:ee:43:ca:
                    8a:03:d5:1f:df:83:b2:40:cd:df:a4:30:4e:21:d5:
                    ea:92:b6:2d:5c:ca:de:7c:a1:8d:6c:08:06:21:a0:
                    53:eb:0b:ae:7e:2c:2c:9d:e8:a5:d6:41:a7:2a:36:
                    e8:60:7d:40:36:87:84:60:b0:02:7e:7e:13:9d:ce:
                    72:b8:c3:91:74:3f:41:88:19:ec:0f:8c:fb:ed:b5:
                    87:ec:22:b4:43:aa:40:c9:9b:6c:88:77:94:48:c1:
                    a8:47:e2:0d:57:51:ce:a9:f9:41:81:72:ff:13:ef:
                    85:49:b5:3d:63:84:17:df:21:b9:42:5f:a9:70:c1:
                    a7:c1:9d:e8:03:9c:68:2b:82:bd:83:5e:35:fc:a0:
                    2b:e9:a8:8e:99:2e:84:19:e3:6d:e1:6f:f5:fe:29:
                    f7:c9:fb:c2:73:3e:eb:85:7c:6e:94:0b:26:95:98:
                    c0:16:cf:6e:10:37:10:b3:ca:b6:5b:af:35:87:ef:
                    7e:db:04:9a:05:ce:4f:18:15:ff:0c:97:89:7c:b1:
                    99:bd:86:a8:5b:b2:e5:95:3f:01:b9:c1:7d:96:25:
                    1e:fb:40:17:97:2a:c3:26:93:ed:5f:3e:23:bd:b9:
                    a2:41
                Exponent: 65537 (0x10001)
        X509v3 extensions:
            X509v3 Subject Key Identifier: 
                70:17:F3:00:F9:69:4A:97:D9:C5:D3:1D:84:42:AC:FF:0F:ED:54:99
            X509v3 Authority Key Identifier: 
                keyid:70:17:F3:00:F9:69:4A:97:D9:C5:D3:1D:84:42:AC:FF:0F:ED:54:99

            X509v3 Basic Constraints: 
                CA:TRUE
    Signature Algorithm: sha256WithRSAEncryption
         40:fc:5a:46:e2:25:40:c6:99:25:ae:18:b2:de:0a:c7:20:04:
         41:7f:74:c2:29:17:13:b8:56:b4:ad:a3:b3:87:0a:c6:ab:70:
         57:63:8f:67:bd:30:09:c2:91:04:dc:b4:ce:b5:24:f8:f2:d0:
         9d:9a:7c:27:18:3c:d8:88:c7:85:bc:28:eb:45:ee:09:75:f7:
         c5:2e:8d:30:01:6e:50:8e:43:bd:24:08:ae:9b:b5:07:a7:b4:
         d6:f0:98:89:6a:2b:8f:97:63:c9:f9:11:a1:d3:57:c7:9b:b1:
         04:8f:5b:2f:25:f6:27:2a:0b:35:16:25:3a:ba:0f:21:b0:42:
         8a:ee:53:de:00:b7:20:3d:3c:69:cb:c0:b7:7d:8e:ee:d6:b9:
         6c:a8:3b:60:7b:22:44:48:03:a4:2c:0a:20:e1:cb:65:7e:44:
         0c:1a:04:3b:27:49:05:b5:5b:82:80:b8:d5:7b:7a:0a:8c:fe:
         25:43:82:90:29:8b:56:40:53:71:3f:88:63:a6:ac:6e:1c:7a:
         5a:a8:30:08:ed:f0:66:2b:04:b4:09:60:75:de:eb:9b:10:6b:
         69:a6:f3:92:4e:2c:f8:ad:7c:7b:a4:42:49:cf:92:4d:f4:8a:
         27:e3:16:fa:50:f6:90:0b:fa:fe:67:fb:08:0c:ea:05:87:55:
         64:03:b9:e2
-----BEGIN CERTIFICATE-----
MIID6TCCAtGgAwIBAgIJAOENCcmilVL6MA0GCSqGSIb3DQEBCwUAMIGKMQswCQYD
VQQGEwJQTDEUMBIGA1UECAwLTWF6b3dpZWNraWUxDjAMBgNVBAoMBU1JTVVXMQww
CgYDVQQLDANCU0sxJzAlBgNVBAMMHkJTSyBDZXJ0aWZpY2F0aW9uIEF1dGhvcml0
eSAxNjEeMBwGCSqGSIb3DQEJARYPY2FAbWltdXcuZWR1LnBsMB4XDTE2MTIxMzE3
MzIzOVoXDTI2MTIxMTE3MzIzOVowgYoxCzAJBgNVBAYTAlBMMRQwEgYDVQQIDAtN
YXpvd2llY2tpZTEOMAwGA1UECgwFTUlNVVcxDDAKBgNVBAsMA0JTSzEnMCUGA1UE
AwweQlNLIENlcnRpZmljYXRpb24gQXV0aG9yaXR5IDE2MR4wHAYJKoZIhvcNAQkB
Fg9jYUBtaW11dy5lZHUucGwwggEiMA0GCSqGSIb3DQEBAQUAA4IBDwAwggEKAoIB
AQDFj7GmWWAgik2DBMbw6XPf+RYmCBpu9/Utm+5DyooD1R/fg7JAzd+kME4h1eqS
ti1cyt58oY1sCAYhoFPrC65+LCyd6KXWQacqNuhgfUA2h4RgsAJ+fhOdznK4w5F0
P0GIGewPjPvttYfsIrRDqkDJm2yId5RIwahH4g1XUc6p+UGBcv8T74VJtT1jhBff
IblCX6lwwafBnegDnGgrgr2DXjX8oCvpqI6ZLoQZ423hb/X+KffJ+8JzPuuFfG6U
CyaVmMAWz24QNxCzyrZbrzWH737bBJoFzk8YFf8Ml4l8sZm9hqhbsuWVPwG5wX2W
JR77QBeXKsMmk+1fPiO9uaJBAgMBAAGjUDBOMB0GA1UdDgQWBBRwF/MA+WlKl9nF
0x2EQqz/D+1UmTAfBgNVHSMEGDAWgBRwF/MA+WlKl9nF0x2EQqz/D+1UmTAMBgNV
HRMEBTADAQH/MA0GCSqGSIb3DQEBCwUAA4IBAQBA/FpG4iVAxpklrhiy3grHIARB
f3TCKRcTuFa0raOzhwrGq3BXY49nvTAJwpEE3LTOtST48tCdmnwnGDzYiMeFvCjr
Re4JdffFLo0wAW5QjkO9JAium7UHp7TW8JiJaiuPl2PJ+RGh01fHm7EEj1svJfYn
Kgs1FiU6ug8hsEKK7lPeALcgPTxpy8C3fY7u1rlsqDtgeyJESAOkLAog4ctlfkQM
GgQ7J0kFtVuCgLjVe3oKjP4lQ4KQKYtWQFNxP4hjpqxuHHpaqDAI7fBmKwS0CWB1
3uubEGtppvOSTiz4rXx7pEJJz5JN9Ion4xb6UPaQC/r+Z/sIDOoFh1VkA7ni
-----END CERTIFICATE-----
