Certificate:
    Data:
        Version: 3 (0x2)
        Serial Number: 14941498493904570575 (0xcf5addb77d3748cf)
    Signature Algorithm: sha256WithRSAEncryption
        Issuer: C=AU, ST=Some-State, O=Internet Widgits Pty Ltd, OU=OUN, CN=bsk/emailAddress=bsk@bsk.bsk
        Validity
            Not Before: Dec 13 13:52:28 2016 GMT
            Not After : Dec 13 13:52:28 2017 GMT
        Subject: C=AU, ST=Some-State, L=Warsaw, O=Internet Widgits Pty Ltd, OU=BSK, CN=BSK /emailAddress=bsk@bsk
        Subject Public Key Info:
            Public Key Algorithm: rsaEncryption
                Public-Key: (2048 bit)
                Modulus:
                    00:b8:73:1f:c1:57:fb:d3:0e:fa:b5:45:94:10:f6:
                    45:9d:90:62:4d:6b:c7:17:fe:03:e7:98:cb:c0:60:
                    80:b2:5b:65:ac:cc:8c:62:c3:a5:f0:02:31:8d:e2:
                    d8:6f:b3:13:5f:54:ee:22:7f:e5:b4:f5:07:0d:d9:
                    cf:18:0b:6e:bd:29:54:de:de:59:6a:eb:3e:b4:6e:
                    13:9e:d1:8d:ab:3d:3f:9d:eb:ab:cd:2b:8b:a5:19:
                    aa:7c:23:a9:72:78:99:55:41:cc:57:a5:72:4b:3c:
                    fe:d9:da:d6:cd:44:06:e6:d0:81:42:3b:36:76:43:
                    66:1f:dc:29:e0:b4:2c:b9:5b:b1:7f:2e:cf:31:b6:
                    fb:ad:7b:de:30:cb:03:29:3f:04:f3:26:9a:c7:47:
                    d9:98:14:25:6f:a2:94:8f:6f:c9:08:a2:74:5f:f5:
                    f1:6a:32:68:50:27:83:37:e3:d7:9a:02:fe:10:47:
                    a8:b5:7b:5b:93:6f:ee:25:44:ab:a9:2c:72:4c:82:
                    c6:b0:5b:ac:d5:94:cd:79:05:f2:ee:4f:ab:53:00:
                    19:82:cb:68:a8:26:55:73:1d:58:28:80:39:39:47:
                    ce:89:68:7a:30:a0:ff:4c:fc:89:ea:82:0a:ff:76:
                    e8:1a:0c:1f:26:d7:c1:00:38:70:62:5d:b7:ee:53:
                    8e:4d
                Exponent: 65537 (0x10001)
        X509v3 extensions:
            X509v3 Basic Constraints: 
                CA:FALSE
            Netscape Comment: 
                OpenSSL Generated Certificate
            X509v3 Subject Key Identifier: 
                A5:03:70:2A:1E:A0:1E:CF:FA:5F:59:86:D9:12:AE:70:86:B4:D9:67
            X509v3 Authority Key Identifier: 
                keyid:65:1A:EC:2D:FE:F7:AC:62:2A:A6:D8:63:23:45:BE:5D:20:E7:E9:B9

    Signature Algorithm: sha256WithRSAEncryption
         69:90:3c:a5:d5:9c:05:38:e2:8d:33:97:6d:fa:33:bd:e2:b7:
         30:90:2e:e1:47:d8:2d:70:32:57:a2:4d:31:38:40:69:c7:d0:
         41:f6:0e:d0:fb:f9:fb:32:c1:4f:31:fe:9a:c6:da:5b:e8:37:
         06:7a:81:ce:dd:52:34:35:89:8b:8c:e1:f5:06:89:80:80:ec:
         dd:0a:41:e7:b9:52:1f:d7:fe:62:20:19:2a:b1:4d:a2:f4:3b:
         49:a8:82:77:72:b9:cc:e2:78:4c:66:48:1d:fd:de:5c:bd:d4:
         8f:da:fc:a4:10:e9:06:19:61:9a:e7:b2:29:f8:75:d5:d4:f6:
         63:c2:80:22:71:bc:b5:bf:27:a9:e4:a3:66:e3:2f:fc:9f:b0:
         45:ab:ab:4f:f1:29:34:1d:c5:f6:fa:ff:12:a4:92:de:68:a7:
         36:1e:6e:78:fd:36:47:62:b8:ba:17:9c:9c:62:66:b3:e5:aa:
         8a:45:7c:cd:33:42:ee:1b:f0:72:10:e6:22:83:66:6c:62:76:
         07:82:cc:cc:27:8f:8b:9d:bc:d9:c2:26:83:e1:3c:c6:8b:40:
         32:7e:ed:6b:5c:d8:80:3e:ff:5f:d2:ee:f1:be:77:7d:39:e0:
         41:2c:77:10:a3:98:d8:17:5c:f9:d8:e5:e1:9f:14:e9:f3:5f:
         33:15:cd:92
-----BEGIN CERTIFICATE-----
MIIEBzCCAu+gAwIBAgIJAM9a3bd9N0jPMA0GCSqGSIb3DQEBCwUAMH0xCzAJBgNV
BAYTAkFVMRMwEQYDVQQIDApTb21lLVN0YXRlMSEwHwYDVQQKDBhJbnRlcm5ldCBX
aWRnaXRzIFB0eSBMdGQxDDAKBgNVBAsMA09VTjEMMAoGA1UEAwwDYnNrMRowGAYJ
KoZIhvcNAQkBFgtic2tAYnNrLmJzazAeFw0xNjEyMTMxMzUyMjhaFw0xNzEyMTMx
MzUyMjhaMIGLMQswCQYDVQQGEwJBVTETMBEGA1UECAwKU29tZS1TdGF0ZTEPMA0G
A1UEBwwGV2Fyc2F3MSEwHwYDVQQKDBhJbnRlcm5ldCBXaWRnaXRzIFB0eSBMdGQx
DDAKBgNVBAsMA0JTSzENMAsGA1UEAwwEQlNLIDEWMBQGCSqGSIb3DQEJARYHYnNr
QGJzazCCASIwDQYJKoZIhvcNAQEBBQADggEPADCCAQoCggEBALhzH8FX+9MO+rVF
lBD2RZ2QYk1rxxf+A+eYy8BggLJbZazMjGLDpfACMY3i2G+zE19U7iJ/5bT1Bw3Z
zxgLbr0pVN7eWWrrPrRuE57Rjas9P53rq80ri6UZqnwjqXJ4mVVBzFelcks8/tna
1s1EBubQgUI7NnZDZh/cKeC0LLlbsX8uzzG2+6173jDLAyk/BPMmmsdH2ZgUJW+i
lI9vyQiidF/18WoyaFAngzfj15oC/hBHqLV7W5Nv7iVEq6ksckyCxrBbrNWUzXkF
8u5Pq1MAGYLLaKgmVXMdWCiAOTlHzoloejCg/0z8ieqCCv926BoMHybXwQA4cGJd
t+5Tjk0CAwEAAaN7MHkwCQYDVR0TBAIwADAsBglghkgBhvhCAQ0EHxYdT3BlblNT
TCBHZW5lcmF0ZWQgQ2VydGlmaWNhdGUwHQYDVR0OBBYEFKUDcCoeoB7P+l9ZhtkS
rnCGtNlnMB8GA1UdIwQYMBaAFGUa7C3+96xiKqbYYyNFvl0g5+m5MA0GCSqGSIb3
DQEBCwUAA4IBAQBpkDyl1ZwFOOKNM5dt+jO94rcwkC7hR9gtcDJXok0xOEBpx9BB
9g7Q+/n7MsFPMf6axtpb6DcGeoHO3VI0NYmLjOH1BomAgOzdCkHnuVIf1/5iIBkq
sU2i9DtJqIJ3crnM4nhMZkgd/d5cvdSP2vykEOkGGWGa57Ip+HXV1PZjwoAicby1
vyep5KNm4y/8n7BFq6tP8Sk0HcX2+v8SpJLeaKc2Hm54/TZHYri6F5ycYmaz5aqK
RXzNM0LuG/ByEOYig2ZsYnYHgszMJ4+LnbzZwiaD4TzGi0Ayfu1rXNiAPv9f0u7x
vnd9OeBBLHcQo5jYF1z52OXhnxTp818zFc2S
-----END CERTIFICATE-----
