Certificate:
    Data:
        Version: 3 (0x2)
        Serial Number: 16216628594851795707 (0xe10d09c9a29552fb)
    Signature Algorithm: sha256WithRSAEncryption
        Issuer: C=PL, ST=Mazowieckie, O=MIMUW, OU=BSK, CN=BSK Certification Authority 16/emailAddress=ca@mimuw.edu.pl
        Validity
            Not Before: Dec 13 17:33:07 2016 GMT
            Not After : Dec 12 17:33:07 2020 GMT
        Subject: C=PL, ST=Mazowieckie, L=Warsaw, O=MIMUW, OU=BSK, CN=bsklabxx.mimuw.edu.pl/emailAddress=bsk@mimuw.edu.pl
        Subject Public Key Info:
            Public Key Algorithm: rsaEncryption
                Public-Key: (2048 bit)
                Modulus:
                    00:aa:8a:b1:81:aa:d1:98:fd:c6:14:d6:ba:54:d0:
                    d9:4c:97:81:e6:6e:2a:3f:f1:c2:63:37:74:2b:81:
                    73:84:f1:76:58:9e:c3:b3:af:c4:55:58:e7:4d:ff:
                    31:bd:39:05:a5:48:94:1e:00:7a:8c:04:ee:35:8a:
                    05:58:31:4b:8a:45:07:87:46:fe:73:76:db:c2:aa:
                    a6:a9:90:14:aa:7e:94:d7:ef:dc:a8:18:d3:2e:1d:
                    1d:ab:c5:4a:42:7b:31:a1:9a:87:9d:ae:4c:e7:d4:
                    30:9d:16:8a:3a:5a:40:9c:75:ba:53:7f:70:e8:11:
                    12:5b:14:ab:fb:1f:c9:31:e1:82:c9:56:7f:77:44:
                    47:0c:0d:bd:34:81:22:d9:44:79:d3:fe:3a:df:14:
                    ee:ef:11:43:48:c0:a0:27:90:bd:1f:d3:fc:69:b3:
                    9f:f3:49:ba:9d:21:05:ad:c3:52:18:a2:2b:1e:f0:
                    51:02:8d:cb:cf:c4:ab:2f:d1:bb:d8:87:6f:54:ca:
                    be:da:64:5e:2c:8c:20:e8:24:12:81:6b:6e:bd:3c:
                    40:dd:38:3c:25:0f:94:57:19:e2:b9:0e:5d:cb:0c:
                    c0:0e:a2:55:b0:df:d4:4a:6a:42:42:44:5d:f5:02:
                    95:b2:7e:86:04:fd:4b:90:29:68:33:dc:72:b3:f9:
                    f0:c7
                Exponent: 65537 (0x10001)
        X509v3 extensions:
            X509v3 Basic Constraints: 
                CA:FALSE
            Netscape Comment: 
                OpenSSL Generated Certificate
            X509v3 Subject Key Identifier: 
                47:7E:9B:6D:1B:3D:79:96:E4:9F:89:A8:04:D4:8A:BB:94:2F:32:FF
            X509v3 Authority Key Identifier: 
                keyid:70:17:F3:00:F9:69:4A:97:D9:C5:D3:1D:84:42:AC:FF:0F:ED:54:99

    Signature Algorithm: sha256WithRSAEncryption
         34:22:a2:ca:37:e2:4d:f4:4a:fe:03:4d:b7:2a:03:b0:3c:05:
         19:57:38:5f:21:95:28:cf:e0:59:16:a9:5b:86:06:1a:05:8e:
         d7:75:53:97:84:5b:57:36:1d:93:eb:12:01:a1:a9:8a:8e:a9:
         2b:5d:9d:27:eb:cb:6b:ea:bd:dc:29:ff:e1:85:29:6e:a1:df:
         0e:1c:9d:7c:68:4e:38:ce:01:aa:3e:42:00:87:7c:8f:05:33:
         8e:a9:cf:4e:c1:65:fd:9d:35:34:f6:9d:04:0f:f9:91:8e:a7:
         9f:d1:e7:46:31:42:86:bc:bb:36:4b:ca:08:da:8a:1c:b7:02:
         93:17:84:70:8d:eb:8d:50:1a:09:d9:df:48:f0:d5:a9:0a:ca:
         c9:62:a2:79:33:db:bb:9c:0d:13:73:6c:96:bf:22:bb:2c:c3:
         be:f2:8e:58:43:94:44:28:9b:ad:48:21:ed:49:5a:a7:0b:9b:
         5a:65:35:8e:38:36:9b:9e:2f:9a:57:2d:c2:37:be:de:cd:77:
         2b:52:eb:4e:7a:ae:e9:42:94:75:0b:c3:f4:4f:98:50:1b:2a:
         63:3e:74:17:e9:dc:31:c4:6e:05:ba:1e:59:1b:20:3f:f4:5d:
         da:af:63:39:e2:b3:05:e7:05:b2:05:b4:f3:6d:31:74:65:c2:
         70:cd:e1:07
-----BEGIN CERTIFICATE-----
MIIEHTCCAwWgAwIBAgIJAOENCcmilVL7MA0GCSqGSIb3DQEBCwUAMIGKMQswCQYD
VQQGEwJQTDEUMBIGA1UECAwLTWF6b3dpZWNraWUxDjAMBgNVBAoMBU1JTVVXMQww
CgYDVQQLDANCU0sxJzAlBgNVBAMMHkJTSyBDZXJ0aWZpY2F0aW9uIEF1dGhvcml0
eSAxNjEeMBwGCSqGSIb3DQEJARYPY2FAbWltdXcuZWR1LnBsMB4XDTE2MTIxMzE3
MzMwN1oXDTIwMTIxMjE3MzMwN1owgZMxCzAJBgNVBAYTAlBMMRQwEgYDVQQIDAtN
YXpvd2llY2tpZTEPMA0GA1UEBwwGV2Fyc2F3MQ4wDAYDVQQKDAVNSU1VVzEMMAoG
A1UECwwDQlNLMR4wHAYDVQQDDBVic2tsYWJ4eC5taW11dy5lZHUucGwxHzAdBgkq
hkiG9w0BCQEWEGJza0BtaW11dy5lZHUucGwwggEiMA0GCSqGSIb3DQEBAQUAA4IB
DwAwggEKAoIBAQCqirGBqtGY/cYU1rpU0NlMl4Hmbio/8cJjN3QrgXOE8XZYnsOz
r8RVWOdN/zG9OQWlSJQeAHqMBO41igVYMUuKRQeHRv5zdtvCqqapkBSqfpTX79yo
GNMuHR2rxUpCezGhmoedrkzn1DCdFoo6WkCcdbpTf3DoERJbFKv7H8kx4YLJVn93
REcMDb00gSLZRHnT/jrfFO7vEUNIwKAnkL0f0/xps5/zSbqdIQWtw1IYoise8FEC
jcvPxKsv0bvYh29Uyr7aZF4sjCDoJBKBa269PEDdODwlD5RXGeK5Dl3LDMAOolWw
39RKakJCRF31ApWyfoYE/UuQKWgz3HKz+fDHAgMBAAGjezB5MAkGA1UdEwQCMAAw
LAYJYIZIAYb4QgENBB8WHU9wZW5TU0wgR2VuZXJhdGVkIENlcnRpZmljYXRlMB0G
A1UdDgQWBBRHfpttGz15luSfiagE1Iq7lC8y/zAfBgNVHSMEGDAWgBRwF/MA+WlK
l9nF0x2EQqz/D+1UmTANBgkqhkiG9w0BAQsFAAOCAQEANCKiyjfiTfRK/gNNtyoD
sDwFGVc4XyGVKM/gWRapW4YGGgWO13VTl4RbVzYdk+sSAaGpio6pK12dJ+vLa+q9
3Cn/4YUpbqHfDhydfGhOOM4Bqj5CAId8jwUzjqnPTsFl/Z01NPadBA/5kY6nn9Hn
RjFChry7NkvKCNqKHLcCkxeEcI3rjVAaCdnfSPDVqQrKyWKieTPbu5wNE3Nslr8i
uyzDvvKOWEOURCibrUgh7UlapwubWmU1jjg2m54vmlctwje+3s13K1LrTnqu6UKU
dQvD9E+YUBsqYz50F+ncMcRuBboeWRsgP/Rd2q9jOeKzBecFsgW0820xdGXCcM3h
Bw==
-----END CERTIFICATE-----
