Certificate:
    Data:
        Version: 3 (0x2)
        Serial Number: 4096 (0x1000)
        Signature Algorithm: sha1WithRSAEncryption
        Issuer: C=PL, ST=mazowieckie, L=Warsaw, O=MIMUW, CN=VPN CA
        Validity
            Not Before: Jan 14 14:18:00 2017 GMT
            Not After : Jan 13 14:18:00 2021 GMT
        Subject: C=PL, ST=mazowieckie, L=Warsaw, O=MIMUW, CN=user 1/emailAddress=user1@mimuw.edu.pl
        Subject Public Key Info:
            Public Key Algorithm: rsaEncryption
            RSA Public Key: (1024 bit)
                Modulus (1024 bit):
                    00:bd:95:fd:66:a4:7b:97:62:6d:6e:6b:55:c7:5d:
                    9a:70:58:31:47:16:df:bd:a3:cc:f3:be:b4:61:7f:
                    5e:5d:9e:0c:f1:eb:ad:c4:6c:62:1b:b6:21:18:be:
                    80:e2:89:33:4d:1a:0c:f6:05:fb:17:c0:d7:68:80:
                    55:12:5b:63:7f:54:46:e6:5c:46:2a:2c:b5:50:30:
                    ac:4f:cf:4f:63:6b:bf:08:41:77:91:6c:de:94:69:
                    52:d1:a5:2f:a6:07:56:6e:8a:4e:10:27:70:3d:70:
                    46:aa:1d:19:13:4c:e5:77:22:64:00:f2:23:52:e3:
                    03:6f:2c:c2:ef:8a:b3:3f:8d
                Exponent: 65537 (0x10001)
        X509v3 extensions:
            X509v3 Basic Constraints: 
                CA:FALSE
            Netscape Comment: 
                OpenSSL Generated Certificate
            X509v3 Subject Key Identifier: 
                87:D2:D5:14:78:68:39:79:CA:81:BD:69:59:B1:98:33:C5:A7:4E:FF
            X509v3 Authority Key Identifier: 
                keyid:0E:0E:F0:70:2D:8B:D1:79:F7:0A:64:A6:AF:45:FD:1B:E0:B9:58:D6

    Signature Algorithm: sha1WithRSAEncryption
        a0:d5:06:4f:ba:92:44:9e:df:50:1d:68:4d:f4:0f:3e:f9:12:
        97:40:96:6d:ba:19:1e:34:05:e4:88:dc:e4:b7:0d:79:96:99:
        54:54:36:20:30:95:cd:7a:78:c8:26:2c:f4:31:c3:0f:17:91:
        03:b2:bf:25:ed:97:ed:fd:b6:a5:42:55:60:ad:99:8b:df:4a:
        8e:e5:60:e9:58:57:b2:a2:b0:17:17:e7:e9:38:bf:dc:4c:65:
        95:2c:22:a0:f9:c7:3a:59:cd:ce:f8:55:7d:ad:b5:ad:53:4a:
        3b:a3:b4:ab:e6:3f:20:33:91:c6:cb:56:e7:88:aa:bb:c0:5a:
        b9:72
-----BEGIN CERTIFICATE-----
MIICvzCCAiigAwIBAgICEAAwDQYJKoZIhvcNAQEFBQAwVTELMAkGA1UEBhMCUEwx
FDASBgNVBAgTC21hem93aWVja2llMQ8wDQYDVQQHEwZXYXJzYXcxDjAMBgNVBAoT
BU1JTVVXMQ8wDQYDVQQDEwZWUE4gQ0EwHhcNMTcwMTE0MTQxODAwWhcNMjEwMTEz
MTQxODAwWjB4MQswCQYDVQQGEwJQTDEUMBIGA1UECBMLbWF6b3dpZWNraWUxDzAN
BgNVBAcTBldhcnNhdzEOMAwGA1UEChMFTUlNVVcxDzANBgNVBAMTBnVzZXIgMTEh
MB8GCSqGSIb3DQEJARYSdXNlcjFAbWltdXcuZWR1LnBsMIGfMA0GCSqGSIb3DQEB
AQUAA4GNADCBiQKBgQC9lf1mpHuXYm1ua1XHXZpwWDFHFt+9o8zzvrRhf15dngzx
663EbGIbtiEYvoDiiTNNGgz2BfsXwNdogFUSW2N/VEbmXEYqLLVQMKxPz09ja78I
QXeRbN6UaVLRpS+mB1Zuik4QJ3A9cEaqHRkTTOV3ImQA8iNS4wNvLMLvirM/jQID
AQABo3sweTAJBgNVHRMEAjAAMCwGCWCGSAGG+EIBDQQfFh1PcGVuU1NMIEdlbmVy
YXRlZCBDZXJ0aWZpY2F0ZTAdBgNVHQ4EFgQUh9LVFHhoOXnKgb1pWbGYM8WnTv8w
HwYDVR0jBBgwFoAUDg7wcC2L0Xn3CmSmr0X9G+C5WNYwDQYJKoZIhvcNAQEFBQAD
gYEAoNUGT7qSRJ7fUB1oTfQPPvkSl0CWbboZHjQF5Ijc5LcNeZaZVFQ2IDCVzXp4
yCYs9DHDDxeRA7K/Je2X7f22pUJVYK2Zi99KjuVg6VhXsqKwFxfn6Ti/3ExllSwi
oPnHOlnNzvhVfa21rVNKO6O0q+Y/IDORxstW54iqu8BauXI=
-----END CERTIFICATE-----
