Certificate:
    Data:
        Version: 3 (0x2)
        Serial Number: 4097 (0x1001)
        Signature Algorithm: sha1WithRSAEncryption
        Issuer: C=PL, ST=mazowieckie, L=Warsaw, O=MIMUW, CN=VPN CA
        Validity
            Not Before: Jan 14 14:18:08 2017 GMT
            Not After : Jan 13 14:18:08 2021 GMT
        Subject: C=PL, ST=mazowieckie, L=Warsaw, O=MIMUW, CN=user 2/emailAddress=user2@mimuw.edu.pl
        Subject Public Key Info:
            Public Key Algorithm: rsaEncryption
            RSA Public Key: (1024 bit)
                Modulus (1024 bit):
                    00:a2:c3:9d:7b:05:9c:7f:43:15:58:fa:d6:df:90:
                    f6:be:63:80:03:18:d9:74:f7:12:d2:eb:21:60:57:
                    06:f9:f6:2a:fe:61:9b:f4:50:70:5e:e8:f9:d7:94:
                    86:9b:8a:75:b1:66:61:bd:a8:bf:e9:ab:e5:c8:83:
                    95:21:a4:49:da:b5:ee:6f:06:73:d6:1f:08:41:1b:
                    66:d6:8e:10:52:76:e9:cb:46:68:99:1f:08:35:73:
                    50:28:d3:df:1e:97:d8:f8:59:4d:27:e3:40:0e:8c:
                    74:22:37:a4:77:67:eb:4e:84:76:ac:74:59:8c:08:
                    83:82:72:26:b0:d0:ab:02:a7
                Exponent: 65537 (0x10001)
        X509v3 extensions:
            X509v3 Basic Constraints: 
                CA:FALSE
            Netscape Comment: 
                OpenSSL Generated Certificate
            X509v3 Subject Key Identifier: 
                E6:CC:FA:C1:AC:6C:6B:CF:7F:33:F0:0B:54:D1:57:08:00:B7:21:4C
            X509v3 Authority Key Identifier: 
                keyid:0E:0E:F0:70:2D:8B:D1:79:F7:0A:64:A6:AF:45:FD:1B:E0:B9:58:D6

    Signature Algorithm: sha1WithRSAEncryption
        2f:a3:01:37:54:13:7e:35:1a:07:9d:79:3f:60:c1:bf:7e:54:
        17:7d:a4:51:29:15:8a:a3:0a:1e:94:57:6d:38:19:14:60:f7:
        b5:60:3d:d8:5a:8e:a2:c8:08:85:08:2b:90:17:8e:b3:dc:6b:
        f7:77:9f:75:ad:eb:a0:d7:2f:10:54:2d:b3:2c:fa:a2:51:1e:
        cc:a5:d2:08:59:7e:63:4b:0b:47:f8:4c:9f:34:b8:e1:f9:2b:
        97:84:cf:14:e1:fc:de:b1:17:dd:ce:07:f1:08:a2:2f:da:b0:
        83:47:09:58:17:d2:91:d8:3c:a4:4b:d2:e9:12:22:1a:50:e2:
        73:ad
-----BEGIN CERTIFICATE-----
MIICvzCCAiigAwIBAgICEAEwDQYJKoZIhvcNAQEFBQAwVTELMAkGA1UEBhMCUEwx
FDASBgNVBAgTC21hem93aWVja2llMQ8wDQYDVQQHEwZXYXJzYXcxDjAMBgNVBAoT
BU1JTVVXMQ8wDQYDVQQDEwZWUE4gQ0EwHhcNMTcwMTE0MTQxODA4WhcNMjEwMTEz
MTQxODA4WjB4MQswCQYDVQQGEwJQTDEUMBIGA1UECBMLbWF6b3dpZWNraWUxDzAN
BgNVBAcTBldhcnNhdzEOMAwGA1UEChMFTUlNVVcxDzANBgNVBAMTBnVzZXIgMjEh
MB8GCSqGSIb3DQEJARYSdXNlcjJAbWltdXcuZWR1LnBsMIGfMA0GCSqGSIb3DQEB
AQUAA4GNADCBiQKBgQCiw517BZx/QxVY+tbfkPa+Y4ADGNl09xLS6yFgVwb59ir+
YZv0UHBe6PnXlIabinWxZmG9qL/pq+XIg5UhpEnate5vBnPWHwhBG2bWjhBSdunL
RmiZHwg1c1Ao098el9j4WU0n40AOjHQiN6R3Z+tOhHasdFmMCIOCciaw0KsCpwID
AQABo3sweTAJBgNVHRMEAjAAMCwGCWCGSAGG+EIBDQQfFh1PcGVuU1NMIEdlbmVy
YXRlZCBDZXJ0aWZpY2F0ZTAdBgNVHQ4EFgQU5sz6waxsa89/M/ALVNFXCAC3IUww
HwYDVR0jBBgwFoAUDg7wcC2L0Xn3CmSmr0X9G+C5WNYwDQYJKoZIhvcNAQEFBQAD
gYEAL6MBN1QTfjUaB515P2DBv35UF32kUSkViqMKHpRXbTgZFGD3tWA92FqOosgI
hQgrkBeOs9xr93efda3roNcvEFQtsyz6olEezKXSCFl+Y0sLR/hMnzS44fkrl4TP
FOH83rEX3c4H8QiiL9qwg0cJWBfSkdg8pEvS6RIiGlDic60=
-----END CERTIFICATE-----
